target datalayout = "e-m:e-p270:32:32-p271:32:32-p272:64:64-i64:64-i128:128-f80:128-n8:16:32:64-S128"
target triple = "x86_64-pc-linux-gnu"

%class.rational = type { %class.mpq }
%class.mpq = type { %class.mpz, %class.mpz }
%class.mpz = type { i32, i8, ptr }
%class.params_ref = type { ptr }
%"class.nla::core" = type { i32, i32, %"class.nla::var_eqs", ptr, ptr, %struct.smt_params_helper, %"class.std::function", %class.vector.10, %class.vector.11, %class.vector.12, %class.vector.13, %class.indexed_uint_set, %class.indexed_uint_set, %"struct.nla::tangents", %"struct.nla::basics", %"class.nla::order", %"class.nla::monotone", %"class.nla::powers", %"class.nla::divisions", %"class.nla::intervals", %"class.nla::monomial_bounds", i32, i8, [3 x i8], %"class.nla::horner", %"class.nla::grobner", %"class.nla::emonics", %class.svector, %class.indexed_uint_set, %class.reslimit, i8, %"class.nra::solver", i8, i32, ptr }
%"class.nla::var_eqs" = type { ptr, %class.union_find, %"class.lp::incremental_vector", %class.vector.2, %class.trail_stack, %class.svector.4, %class.svector.6, %class.svector, %class.svector.8, %"struct.nla::var_eqs<nla::emonics>::stats" }
%class.union_find = type { ptr, ptr, %class.svector, %class.svector, %class.svector, %"class.union_find<nla::var_eqs<nla::emonics>>::mk_var_trail" }
%"class.union_find<nla::var_eqs<nla::emonics>>::mk_var_trail" = type { %class.trail, ptr }
%class.trail = type { ptr }
%"class.lp::incremental_vector" = type { %class.vector.0, %class.vector.1 }
%class.vector.0 = type { ptr }
%class.vector.1 = type { ptr }
%class.vector.2 = type { ptr }
%class.trail_stack = type { %class.ptr_vector, %class.svector, %class.region }
%class.ptr_vector = type { %class.vector.3 }
%class.vector.3 = type { ptr }
%class.region = type { ptr, ptr, ptr, ptr, ptr }
%class.svector.4 = type { %class.vector.5 }
%class.vector.5 = type { ptr }
%class.svector.6 = type { %class.vector.7 }
%class.vector.7 = type { ptr }
%class.svector.8 = type { %class.vector.9 }
%class.vector.9 = type { ptr }
%"struct.nla::var_eqs<nla::emonics>::stats" = type { i32, i32 }
%struct.smt_params_helper = type { ptr, %class.params_ref }
%"class.std::function" = type { %"class.std::_Function_base", ptr }
%"class.std::_Function_base" = type { %"union.std::_Any_data", ptr }
%"union.std::_Any_data" = type { %"union.std::_Nocopy_types" }
%"union.std::_Nocopy_types" = type { { i64, i64 } }
%class.vector.10 = type { ptr }
%class.vector.11 = type { ptr }
%class.vector.12 = type { ptr }
%class.vector.13 = type { ptr }
%"struct.nla::tangents" = type { %"struct.nla::common" }
%"struct.nla::common" = type { ptr, %"class.nla::nex_creator" }
%"class.nla::nex_creator" = type { %class.ptr_vector.14, %"class.std::unordered_map", %"class.std::unordered_map.18", %class.svector, %"class.nla::nex_creator::mul_factory" }
%class.ptr_vector.14 = type { %class.vector.15 }
%class.vector.15 = type { ptr }
%"class.std::unordered_map" = type { %"class.std::_Hashtable" }
%"class.std::_Hashtable" = type { ptr, i64, %"struct.std::__detail::_Hash_node_base", i64, %"struct.std::__detail::_Prime_rehash_policy", ptr }
%"struct.std::__detail::_Hash_node_base" = type { ptr }
%"struct.std::__detail::_Prime_rehash_policy" = type { float, i64 }
%"class.std::unordered_map.18" = type { %"class.std::_Hashtable.19" }
%"class.std::_Hashtable.19" = type { ptr, i64, %"struct.std::__detail::_Hash_node_base", i64, %"struct.std::__detail::_Prime_rehash_policy", ptr }
%"class.nla::nex_creator::mul_factory" = type { ptr, %class.rational, %class.vector.32 }
%class.vector.32 = type { ptr }
%"struct.nla::basics" = type { %"struct.nla::common" }
%"class.nla::order" = type { %"struct.nla::common" }
%"class.nla::monotone" = type { %"struct.nla::common" }
%"class.nla::powers" = type { ptr }
%"class.nla::divisions" = type { ptr, %class.vector.33, %class.vector.33, %class.vector.33 }
%class.vector.33 = type { ptr }
%"class.nla::intervals" = type { %class.dep_intervals, ptr }
%class.dep_intervals = type { ptr, %class.mpq_manager, %"class.dep_intervals::im_config", %class.interval_manager }
%class.mpq_manager = type { %class.mpz_manager, %class.mpz, %class.mpz, %class.mpz, %class.mpz, %class.mpq, %class.mpq }
%class.mpz_manager = type { %class.small_object_allocator, %"class.std::recursive_mutex", [4 x i8], i32, %class.mpz, %class.mpz }
%class.small_object_allocator = type { [32 x ptr], [32 x ptr], i64 }
%"class.std::recursive_mutex" = type { %"class.std::__recursive_mutex_base" }
%"class.std::__recursive_mutex_base" = type { %union.pthread_mutex_t }
%union.pthread_mutex_t = type { %struct.__pthread_mutex_s }
%struct.__pthread_mutex_s = type { i32, i32, i32, i32, i32, i16, i16, %struct.__pthread_internal_list }
%struct.__pthread_internal_list = type { ptr, ptr }
%"class.dep_intervals::im_config" = type { ptr, ptr }
%class.interval_manager = type { ptr, %"class.dep_intervals::im_config", %class.mpq, %class.mpq, %class.mpq, %class.mpq, %class.mpq, %class.mpq, %class.mpq, %class.mpq, %class.mpq, i32, %"struct.dep_intervals::im_config::interval", %"struct.dep_intervals::im_config::interval", %"struct.dep_intervals::im_config::interval", %"struct.dep_intervals::im_config::interval" }
%"struct.dep_intervals::im_config::interval" = type { %class.mpq, %class.mpq, i8, ptr, ptr }
%"class.nla::monomial_bounds" = type { %"struct.nla::common", ptr, i32, %class.svector }
%"class.nla::horner" = type <{ %"struct.nla::common", %"class.nla::nex_creator::sum_factory", i32, [4 x i8] }>
%"class.nla::nex_creator::sum_factory" = type { ptr, %class.ptr_vector.14 }
%"class.nla::grobner" = type { %"struct.nla::common", %"class.dd::pdd_manager", %"class.dd::solver", ptr, %class.indexed_uint_set, i32, i32, i32, i8, %"class.std::unordered_map.53" }
%"class.dd::pdd_manager" = type { %class.svector.34, %class.vector.36, %class.ptr_hashtable, %class.hashtable, %class.hashtable.39, %class.map, %class.svector, ptr, %class.svector, %class.svector, %class.svector, %class.svector, %class.small_object_allocator, %class.svector, i32, %class.svector, %class.svector, %class.svector.45, i8, i8, i32, i32, %class.svector, %class.svector, %class.rational, %class.rational, i32, %class.rational, %class.svector, i32, %class.svector, %class.svector, %class.rational, %class.rational }
%class.svector.34 = type { %class.vector.35 }
%class.vector.35 = type { ptr }
%class.vector.36 = type { ptr }
%class.ptr_hashtable = type { %class.core_hashtable.base, [4 x i8] }
%class.core_hashtable.base = type <{ ptr, i32, i32, i32 }>
%class.hashtable = type { %class.core_hashtable.base.38, [4 x i8] }
%class.core_hashtable.base.38 = type <{ ptr, i32, i32, i32 }>
%class.hashtable.39 = type { %class.core_hashtable.base.41, [4 x i8] }
%class.core_hashtable.base.41 = type <{ ptr, i32, i32, i32 }>
%class.map = type { %class.table2map }
%class.table2map = type { %class.core_hashtable.43 }
%class.core_hashtable.43 = type <{ ptr, i32, i32, i32, [4 x i8] }>
%class.svector.45 = type { %class.vector.46 }
%class.vector.46 = type { ptr }
%"class.dd::solver" = type { ptr, ptr, ptr, %"class.dd::solver::stats", %"struct.dd::solver::config", %"class.std::function.47", %class.ptr_vector.50, %class.ptr_vector.50, %class.ptr_vector.50, %class.vector.52, %class.ptr_vector.50, ptr, i8, i32, %class.svector, %class.svector }
%"class.dd::solver::stats" = type <{ i32, [4 x i8], double, i32, i32, i32, [4 x i8] }>
%"struct.dd::solver::config" = type { i32, i32, i32, i32, i32, i32, i8, i32, i32, i32, i32 }
%"class.std::function.47" = type { %"class.std::_Function_base", ptr }
%class.vector.52 = type { ptr }
%class.ptr_vector.50 = type { %class.vector.51 }
%class.vector.51 = type { ptr }
%"class.std::unordered_map.53" = type { %"class.std::_Hashtable.54" }
%"class.std::_Hashtable.54" = type { ptr, i64, %"struct.std::__detail::_Hash_node_base", i64, %"struct.std::__detail::_Prime_rehash_policy", ptr }
%"class.nla::emonics" = type { %class.trail_stack, %class.union_find.71, %class.svector, ptr, %class.vector.72, %class.svector, i32, %class.svector.73, %"struct.nla::emonics::hash_canonical", %"struct.nla::emonics::eq_canonical", %class.map.75 }
%class.union_find.71 = type { ptr, ptr, %class.svector, %class.svector, %class.svector, %"class.union_find<nla::emonics>::mk_var_trail" }
%"class.union_find<nla::emonics>::mk_var_trail" = type { %class.trail, ptr }
%class.vector.72 = type { ptr }
%class.svector.73 = type { %class.vector.74 }
%class.vector.74 = type { ptr }
%"struct.nla::emonics::hash_canonical" = type { ptr }
%"struct.nla::emonics::eq_canonical" = type { ptr }
%class.map.75 = type { %class.table2map.76 }
%class.table2map.76 = type { %class.core_hashtable.77 }
%class.core_hashtable.77 = type <{ %"struct.table2map<default_map_entry<unsigned int, svector<unsigned int>>, nla::emonics::hash_canonical, nla::emonics::eq_canonical>::entry_hash_proc", %"struct.table2map<default_map_entry<unsigned int, svector<unsigned int>>, nla::emonics::hash_canonical, nla::emonics::eq_canonical>::entry_eq_proc", ptr, i32, i32, i32, [4 x i8] }>
%"struct.table2map<default_map_entry<unsigned int, svector<unsigned int>>, nla::emonics::hash_canonical, nla::emonics::eq_canonical>::entry_hash_proc" = type { %"struct.nla::emonics::hash_canonical" }
%"struct.table2map<default_map_entry<unsigned int, svector<unsigned int>>, nla::emonics::hash_canonical, nla::emonics::eq_canonical>::entry_eq_proc" = type { %"struct.nla::emonics::eq_canonical" }
%class.svector = type { %class.vector }
%class.vector = type { ptr }
%class.indexed_uint_set = type { i32, %class.svector, %class.svector }
%class.reslimit = type { %"struct.std::atomic", i8, i64, i64, %class.svector.79, %class.ptr_vector.81 }
%"struct.std::atomic" = type { %"struct.std::__atomic_base" }
%"struct.std::__atomic_base" = type { i32 }
%class.svector.79 = type { %class.vector.80 }
%class.vector.80 = type { ptr }
%class.ptr_vector.81 = type { %class.vector.82 }
%class.vector.82 = type { ptr }
%"class.nra::solver" = type { ptr }
%"class.nla::signed_var" = type { i32 }

; Function Attrs: mustprogress nounwind uwtable
define linkonce_odr hidden noundef nonnull align 4 dereferenceable(4) ptr @_ZNK6vectorIjLb0EjEixEj(ptr noundef nonnull align 8 dereferenceable(8) %0, i32 noundef %1) #4 comdat align 2 {
  %3 = alloca ptr, align 8
  %4 = alloca i32, align 4
  store ptr %0, ptr %3, align 8, !tbaa !305
  store i32 %1, ptr %4, align 4, !tbaa !8
  %5 = load ptr, ptr %3, align 8
  %6 = getelementptr inbounds nuw %class.vector, ptr %5, i32 0, i32 0
  %7 = load ptr, ptr %6, align 8, !tbaa !308
  %8 = load i32, ptr %4, align 4, !tbaa !8
  %9 = zext i32 %8 to i64
  %10 = getelementptr inbounds nuw i32, ptr %7, i64 %9
  ret ptr %10
}

; Function Attrs: mustprogress nounwind uwtable
define linkonce_odr hidden noundef i32 @_ZNK6vectorIjLb0EjE4sizeEv(ptr noundef nonnull align 8 dereferenceable(8) %0) #4 comdat align 2 {
  %2 = alloca i32, align 4
  %3 = alloca ptr, align 8
  store ptr %0, ptr %3, align 8, !tbaa !305
  %4 = load ptr, ptr %3, align 8
  %5 = getelementptr inbounds nuw %class.vector, ptr %4, i32 0, i32 0
  %6 = load ptr, ptr %5, align 8, !tbaa !308
  %7 = icmp eq ptr %6, null
  br i1 %7, label %8, label %9

8:                                                ; preds = %1
  store i32 0, ptr %2, align 4
  br label %14

9:                                                ; preds = %1
  %10 = getelementptr inbounds nuw %class.vector, ptr %4, i32 0, i32 0
  %11 = load ptr, ptr %10, align 8, !tbaa !308
  %12 = getelementptr inbounds i32, ptr %11, i64 -1
  %13 = load i32, ptr %12, align 4, !tbaa !8
  store i32 %13, ptr %2, align 4
  br label %14

14:                                               ; preds = %9, %8
  %15 = load i32, ptr %2, align 4
  ret i32 %15
}

; Function Attrs: mustprogress nounwind uwtable
define linkonce_odr hidden void @_ZN3nla10signed_varC2Ej(ptr noundef nonnull align 4 dereferenceable(4) %0, i32 noundef %1) unnamed_addr #4 comdat align 2 {
  %3 = alloca ptr, align 8
  %4 = alloca i32, align 4
  store ptr %0, ptr %3, align 8, !tbaa !296
  store i32 %1, ptr %4, align 4, !tbaa !8
  %5 = load ptr, ptr %3, align 8
  %6 = getelementptr inbounds nuw %"class.nla::signed_var", ptr %5, i32 0, i32 0
  %7 = load i32, ptr %4, align 4, !tbaa !8
  store i32 %7, ptr %6, align 4, !tbaa !298
  ret void
}

; Function Attrs: mustprogress nounwind uwtable
define linkonce_odr hidden noundef i32 @_ZNK10union_findIN3nla7var_eqsINS0_7emonicsEEEE4findEj(ptr noundef nonnull align 8 dereferenceable(56) %0, i32 noundef %1) #4 comdat align 2 {
  %3 = alloca i32, align 4
  %4 = alloca ptr, align 8
  %5 = alloca i32, align 4
  %6 = alloca i32, align 4
  %7 = alloca i32, align 4
  store ptr %0, ptr %4, align 8, !tbaa !825
  store i32 %1, ptr %5, align 4, !tbaa !8
  %8 = load ptr, ptr %4, align 8
  br label %9

9:                                                ; preds = %2, %23
  call void @llvm.lifetime.start.p0(i64 4, ptr %6) #3
  %10 = getelementptr inbounds nuw %class.union_find, ptr %8, i32 0, i32 2
  %11 = load i32, ptr %5, align 4, !tbaa !8
  %12 = call noundef nonnull align 4 dereferenceable(4) ptr @_ZNK6vectorIjLb0EjEixEj(ptr noundef nonnull align 8 dereferenceable(8) %10, i32 noundef %11)
  %13 = load i32, ptr %12, align 4, !tbaa !8
  store i32 %13, ptr %6, align 4, !tbaa !8
  %14 = load i32, ptr %6, align 4, !tbaa !8
  %15 = load i32, ptr %5, align 4, !tbaa !8
  %16 = icmp eq i32 %14, %15
  br i1 %16, label %17, label %19

17:                                               ; preds = %9
  %18 = load i32, ptr %5, align 4, !tbaa !8
  store i32 %18, ptr %3, align 4
  store i32 1, ptr %7, align 4
  br label %21

19:                                               ; preds = %9
  %20 = load i32, ptr %6, align 4, !tbaa !8
  store i32 %20, ptr %5, align 4, !tbaa !8
  store i32 0, ptr %7, align 4
  br label %21

21:                                               ; preds = %19, %17
  call void @llvm.lifetime.end.p0(i64 4, ptr %6) #3
  %22 = load i32, ptr %7, align 4
  switch i32 %22, label %26 [
    i32 0, label %23
    i32 1, label %24
  ]

23:                                               ; preds = %21
  br label %9, !llvm.loop !1375

24:                                               ; preds = %21
  %25 = load i32, ptr %3, align 4
  ret i32 %25

26:                                               ; preds = %21
  unreachable
}

; Function Attrs: mustprogress nounwind uwtable
define linkonce_odr hidden noundef i32 @_ZNK10union_findIN3nla7var_eqsINS0_7emonicsEEEE12get_num_varsEv(ptr noundef nonnull align 8 dereferenceable(56) %0) #4 comdat align 2 {
  %2 = alloca ptr, align 8
  store ptr %0, ptr %2, align 8, !tbaa !825
  %3 = load ptr, ptr %2, align 8
  %4 = getelementptr inbounds nuw %class.union_find, ptr %3, i32 0, i32 2
  %5 = call noundef i32 @_ZNK6vectorIjLb0EjE4sizeEv(ptr noundef nonnull align 8 dereferenceable(8) %4)
  ret i32 %5
}

; Function Attrs: mustprogress nounwind uwtable
define linkonce_odr hidden noundef i32 @_ZNK3nla10signed_var5indexEv(ptr noundef nonnull align 4 dereferenceable(4) %0) #4 comdat align 2 {
  %2 = alloca ptr, align 8
  store ptr %0, ptr %2, align 8, !tbaa !296
  %3 = load ptr, ptr %2, align 8
  %4 = getelementptr inbounds nuw %"class.nla::signed_var", ptr %3, i32 0, i32 0
  %5 = load i32, ptr %4, align 4, !tbaa !298
  ret i32 %5
}

; Function Attrs: mustprogress uwtable
define linkonce_odr hidden i32 @_ZNK3nla7var_eqsINS_7emonicsEE4findENS_10signed_varE(ptr noundef nonnull align 8 dereferenceable(184) %0, i32 %1) #6 comdat align 2 {
  %3 = alloca %"class.nla::signed_var", align 4
  %4 = alloca %"class.nla::signed_var", align 4
  %5 = alloca ptr, align 8
  %6 = alloca i32, align 4
  %7 = getelementptr inbounds nuw %"class.nla::signed_var", ptr %4, i32 0, i32 0
  store i32 %1, ptr %7, align 4
  store ptr %0, ptr %5, align 8, !tbaa !200
  %8 = load ptr, ptr %5, align 8
  %9 = call noundef i32 @_ZNK3nla10signed_var5indexEv(ptr noundef nonnull align 4 dereferenceable(4) %4)
  %10 = getelementptr inbounds nuw %"class.nla::var_eqs", ptr %8, i32 0, i32 1
  %11 = call noundef i32 @_ZNK10union_findIN3nla7var_eqsINS0_7emonicsEEEE12get_num_varsEv(ptr noundef nonnull align 8 dereferenceable(56) %10)
  %12 = icmp uge i32 %9, %11
  br i1 %12, label %13, label %14

13:                                               ; preds = %2
  call void @llvm.memcpy.p0.p0.i64(ptr align 4 %3, ptr align 4 %4, i64 4, i1 false), !tbaa.struct !402
  br label %19

14:                                               ; preds = %2
  call void @llvm.lifetime.start.p0(i64 4, ptr %6) #3
  %15 = getelementptr inbounds nuw %"class.nla::var_eqs", ptr %8, i32 0, i32 1
  %16 = call noundef i32 @_ZNK3nla10signed_var5indexEv(ptr noundef nonnull align 4 dereferenceable(4) %4)
  %17 = call noundef i32 @_ZNK10union_findIN3nla7var_eqsINS0_7emonicsEEEE4findEj(ptr noundef nonnull align 8 dereferenceable(56) %15, i32 noundef %16)
  store i32 %17, ptr %6, align 4, !tbaa !8
  %18 = load i32, ptr %6, align 4, !tbaa !8
  call void @_ZN3nla10signed_varC2Ej(ptr noundef nonnull align 4 dereferenceable(4) %3, i32 noundef %18)
  call void @llvm.lifetime.end.p0(i64 4, ptr %6) #3
  br label %19

19:                                               ; preds = %14, %13
  %20 = getelementptr inbounds nuw %"class.nla::signed_var", ptr %3, i32 0, i32 0
  %21 = load i32, ptr %20, align 4
  ret i32 %21
}

; Function Attrs: mustprogress nounwind uwtable
define linkonce_odr hidden void @_ZN3nla10signed_varC2Ejb(ptr noundef nonnull align 4 dereferenceable(4) %0, i32 noundef %1, i1 noundef zeroext %2) unnamed_addr #4 comdat align 2 {
  %4 = alloca ptr, align 8
  %5 = alloca i32, align 4
  %6 = alloca i8, align 1
  store ptr %0, ptr %4, align 8, !tbaa !296
  store i32 %1, ptr %5, align 4, !tbaa !8
  %7 = zext i1 %2 to i8
  store i8 %7, ptr %6, align 1, !tbaa !10
  %8 = load ptr, ptr %4, align 8
  %9 = getelementptr inbounds nuw %"class.nla::signed_var", ptr %8, i32 0, i32 0
  %10 = load i32, ptr %5, align 4, !tbaa !8
  %11 = shl i32 %10, 1
  %12 = load i8, ptr %6, align 1, !tbaa !10, !range !12, !noundef !13
  %13 = trunc i8 %12 to i1
  %14 = select i1 %13, i32 1, i32 0
  %15 = add i32 %11, %14
  store i32 %15, ptr %9, align 4, !tbaa !298
  ret void
}

; Function Attrs: mustprogress nounwind uwtable
define linkonce_odr hidden noundef i32 @_ZNK3nla10signed_var3varEv(ptr noundef nonnull align 4 dereferenceable(4) %0) #4 comdat align 2 {
  %2 = alloca ptr, align 8
  store ptr %0, ptr %2, align 8, !tbaa !296
  %3 = load ptr, ptr %2, align 8
  %4 = getelementptr inbounds nuw %"class.nla::signed_var", ptr %3, i32 0, i32 0
  %5 = load i32, ptr %4, align 4, !tbaa !298
  %6 = lshr i32 %5, 1
  ret i32 %6
}

; Function Attrs: inlinehint mustprogress uwtable
define linkonce_odr hidden i32 @_ZNK3nla7var_eqsINS_7emonicsEE4findEj(ptr noundef nonnull align 8 dereferenceable(184) %0, i32 noundef %1) #9 comdat align 2 {
  %3 = alloca %"class.nla::signed_var", align 4
  %4 = alloca ptr, align 8
  %5 = alloca i32, align 4
  %6 = alloca %"class.nla::signed_var", align 4
  store ptr %0, ptr %4, align 8, !tbaa !200
  store i32 %1, ptr %5, align 4, !tbaa !8
  %7 = load ptr, ptr %4, align 8
  %8 = load i32, ptr %5, align 4, !tbaa !8
  call void @_ZN3nla10signed_varC2Ejb(ptr noundef nonnull align 4 dereferenceable(4) %6, i32 noundef %8, i1 noundef zeroext false)
  %9 = getelementptr inbounds nuw %"class.nla::signed_var", ptr %6, i32 0, i32 0
  %10 = load i32, ptr %9, align 4
  %11 = call i32 @_ZNK3nla7var_eqsINS_7emonicsEE4findENS_10signed_varE(ptr noundef nonnull align 8 dereferenceable(184) %7, i32 %10)
  %12 = getelementptr inbounds nuw %"class.nla::signed_var", ptr %3, i32 0, i32 0
  store i32 %11, ptr %12, align 4
  %13 = getelementptr inbounds nuw %"class.nla::signed_var", ptr %3, i32 0, i32 0
  %14 = load i32, ptr %13, align 4
  ret i32 %14
}

; Function Attrs: mustprogress uwtable
define hidden noundef i32 @_ZNK3nla4core11map_to_rootEj(ptr noundef nonnull align 8 dereferenceable(4736) %0, i32 noundef %1) #6 align 2 {
  %3 = alloca ptr, align 8
  %4 = alloca i32, align 4
  %5 = alloca %"class.nla::signed_var", align 4
  store ptr %0, ptr %3, align 8, !tbaa !16
  store i32 %1, ptr %4, align 4, !tbaa !8
  %6 = load ptr, ptr %3, align 8
  call void @llvm.lifetime.start.p0(i64 4, ptr %5) #3
  %7 = getelementptr inbounds nuw %"class.nla::core", ptr %6, i32 0, i32 2
  %8 = load i32, ptr %4, align 4, !tbaa !8
  %9 = call i32 @_ZNK3nla7var_eqsINS_7emonicsEE4findEj(ptr noundef nonnull align 8 dereferenceable(184) %7, i32 noundef %8)
  %10 = getelementptr inbounds nuw %"class.nla::signed_var", ptr %5, i32 0, i32 0
  store i32 %9, ptr %10, align 4
  %11 = call noundef i32 @_ZNK3nla10signed_var3varEv(ptr noundef nonnull align 4 dereferenceable(4) %5)
  call void @llvm.lifetime.end.p0(i64 4, ptr %5) #3
  ret i32 %11
}