; Function Attrs: mustprogress nofree norecurse nosync nounwind willreturn memory(read, inaccessiblemem: none) uwtable
define hidden noundef range(i32 0, -2147483648) i32 @_ZNK3nla4core11map_to_rootEj(ptr noundef nonnull readonly align 8 captures(none) dereferenceable(4736) %0, i32 noundef %1) local_unnamed_addr #9 align 2 {
  %3 = shl i32 %1, 1
  %4 = getelementptr inbounds nuw i8, ptr %0, i64 32
  %5 = load ptr, ptr %4, align 8, !tbaa !188
  %6 = icmp eq ptr %5, null
  br i1 %6, label %_ZNK3nla7var_eqsINS_7emonicsEE4findEj.exit, label %_ZNK10union_findIN3nla7var_eqsINS0_7emonicsEEEE12get_num_varsEv.exit.i.i

_ZNK10union_findIN3nla7var_eqsINS0_7emonicsEEEE12get_num_varsEv.exit.i.i: ; preds = %2
  %7 = getelementptr inbounds i8, ptr %5, i64 -4
  %8 = load i32, ptr %7, align 4, !tbaa !249
  %.not.i.i = icmp ult i32 %3, %8
  br i1 %.not.i.i, label %.preheader.i.i, label %_ZNK3nla7var_eqsINS_7emonicsEE4findEj.exit

.preheader.i.i:                                   ; preds = %_ZNK10union_findIN3nla7var_eqsINS0_7emonicsEEEE12get_num_varsEv.exit.i.i, %.preheader.i.i
  %.08.i.i.i = phi i32 [ %11, %.preheader.i.i ], [ %3, %_ZNK10union_findIN3nla7var_eqsINS0_7emonicsEEEE12get_num_varsEv.exit.i.i ]
  %9 = zext i32 %.08.i.i.i to i64
  %10 = getelementptr inbounds nuw i32, ptr %5, i64 %9
  %11 = load i32, ptr %10, align 4, !tbaa !249
  %.not.i.i.i = icmp eq i32 %11, %.08.i.i.i
  br i1 %.not.i.i.i, label %_ZNK3nla7var_eqsINS_7emonicsEE4findEj.exit, label %.preheader.i.i

_ZNK3nla7var_eqsINS_7emonicsEE4findEj.exit:       ; preds = %.preheader.i.i, %2, %_ZNK10union_findIN3nla7var_eqsINS0_7emonicsEEEE12get_num_varsEv.exit.i.i
  %.sroa.03.0.i.i = phi i32 [ %3, %_ZNK10union_findIN3nla7var_eqsINS0_7emonicsEEEE12get_num_varsEv.exit.i.i ], [ %3, %2 ], [ %.08.i.i.i, %.preheader.i.i ]
  %12 = lshr i32 %.sroa.03.0.i.i, 1
  ret i32 %12
}